; Function Attrs: mustprogress uwtable
define hidden void @_ZN4cvc58internal6theory2bv16TheoryBVRewriter10RewriteUltENS0_12NodeTemplateILb0EEEb(ptr noalias nocapture writeonly sret(%"struct.cvc5::internal::theory::RewriteResponse") align 8 %agg.result, ptr nocapture noundef readonly %node, i1 zeroext %prerewrite) #4 align 2 personality ptr @__gxx_personality_v0 {
entry:
  %resultNode = alloca %"class.cvc5::internal::NodeTemplate", align 8
  %agg.tmp = alloca %"class.cvc5::internal::NodeTemplate.0", align 8
  %agg.tmp3 = alloca %"class.cvc5::internal::NodeTemplate", align 8
  %0 = load ptr, ptr %node, align 8
  store ptr %0, ptr %agg.tmp, align 8
  call void @_ZN4cvc58internal6theory2bv21LinearRewriteStrategyINS2_11RewriteRuleILNS2_13RewriteRuleIdE60EEENS4_ILS5_124EEENS4_ILS5_125EEENS4_ILS5_104EEENS4_ILS5_131EEENS4_ILS5_132EEENS4_ILS5_133EEENS4_ILS5_0EEESD_SD_SD_SD_SD_SD_SD_SD_SD_SD_SD_SD_E5applyENS0_12NodeTemplateILb0EEE(ptr nonnull sret(%"class.cvc5::internal::NodeTemplate") align 8 %resultNode, ptr noundef nonnull %agg.tmp)
  %1 = load ptr, ptr %resultNode, align 8
  %2 = load ptr, ptr %node, align 8
  %cmp.i = icmp eq ptr %1, %2
  store ptr %1, ptr %agg.tmp3, align 8
  %bf.load.i.i = load i64, ptr %1, align 8
  %bf.lshr.i.i = lshr i64 %bf.load.i.i, 40
  %3 = trunc i64 %bf.lshr.i.i to i32
  %bf.cast.i.i = and i32 %3, 1048575
  %cmp.i.i = icmp ult i32 %bf.cast.i.i, 1048574
  br i1 %cmp.i.i, label %if.then.i.i, label %if.else.i.i

if.then.i.i:                                      ; preds = %entry
  %bf.value.i.i = add i64 %bf.load.i.i, 1099511627776
  %bf.shl.i.i = and i64 %bf.value.i.i, 1152920405095219200
  %bf.clear7.i.i = and i64 %bf.load.i.i, -1152920405095219201
  %bf.set.i.i = or disjoint i64 %bf.shl.i.i, %bf.clear7.i.i
  store i64 %bf.set.i.i, ptr %1, align 8
  br label %invoke.cont4

if.else.i.i:                                      ; preds = %entry
  %cmp12.i.i = icmp eq i32 %bf.cast.i.i, 1048574
  br i1 %cmp12.i.i, label %if.then13.i.i, label %invoke.cont4

if.then13.i.i:                                    ; preds = %if.else.i.i
  %bf.set23.i.i = or i64 %bf.load.i.i, 1152920405095219200
  store i64 %bf.set23.i.i, ptr %1, align 8
  invoke void @_ZN4cvc58internal4expr9NodeValue20markRefCountMaxedOutEv(ptr noundef nonnull align 8 dereferenceable(16) %1)
          to label %if.then13.i.i.invoke.cont4_crit_edge unwind label %lpad1

if.then13.i.i.invoke.cont4_crit_edge:             ; preds = %if.then13.i.i
  %bf.load.i.i.i.pre = load i64, ptr %1, align 8
  br label %invoke.cont4

invoke.cont4:                                     ; preds = %if.then13.i.i.invoke.cont4_crit_edge, %if.else.i.i, %if.then.i.i
  %bf.load.i.i.i = phi i64 [ %bf.load.i.i.i.pre, %if.then13.i.i.invoke.cont4_crit_edge ], [ %bf.load.i.i, %if.else.i.i ], [ %bf.set.i.i, %if.then.i.i ]
  %cond = select i1 %cmp.i, i32 0, i32 2
  store i32 %cond, ptr %agg.result, align 8
  %d_node.i = getelementptr inbounds i8, ptr %agg.result, i64 8
  store ptr %1, ptr %d_node.i, align 8
  %bf.lshr.i.i.i = lshr i64 %bf.load.i.i.i, 40
  %4 = trunc i64 %bf.lshr.i.i.i to i32
  %bf.cast.i.i.i = and i32 %4, 1048575
  %cmp.i.i.i = icmp ult i32 %bf.cast.i.i.i, 1048574
  br i1 %cmp.i.i.i, label %if.then.i.i.i, label %if.else.i.i.i

if.then.i.i.i:                                    ; preds = %invoke.cont4
  %bf.value.i.i.i = add i64 %bf.load.i.i.i, 1099511627776
  %bf.shl.i.i.i = and i64 %bf.value.i.i.i, 1152920405095219200
  %bf.clear7.i.i.i = and i64 %bf.load.i.i.i, -1152920405095219201
  %bf.set.i.i.i = or disjoint i64 %bf.shl.i.i.i, %bf.clear7.i.i.i
  store i64 %bf.set.i.i.i, ptr %1, align 8
  br label %invoke.cont6

if.else.i.i.i:                                    ; preds = %invoke.cont4
  %cmp12.i.i.i = icmp eq i32 %bf.cast.i.i.i, 1048574
  br i1 %cmp12.i.i.i, label %if.then13.i.i.i, label %invoke.cont6

if.then13.i.i.i:                                  ; preds = %if.else.i.i.i
  %bf.set23.i.i.i = or i64 %bf.load.i.i.i, 1152920405095219200
  store i64 %bf.set23.i.i.i, ptr %1, align 8
  invoke void @_ZN4cvc58internal4expr9NodeValue20markRefCountMaxedOutEv(ptr noundef nonnull align 8 dereferenceable(16) %1)
          to label %if.then13.i.i.i.invoke.cont6_crit_edge unwind label %lpad5

if.then13.i.i.i.invoke.cont6_crit_edge:           ; preds = %if.then13.i.i.i
  %bf.load.i.i4.pre = load i64, ptr %1, align 8
  br label %invoke.cont6

invoke.cont6:                                     ; preds = %if.then13.i.i.i.invoke.cont6_crit_edge, %if.else.i.i.i, %if.then.i.i.i
  %bf.load.i.i4 = phi i64 [ %bf.load.i.i4.pre, %if.then13.i.i.i.invoke.cont6_crit_edge ], [ %bf.load.i.i.i, %if.else.i.i.i ], [ %bf.set.i.i.i, %if.then.i.i.i ]
  %5 = and i64 %bf.load.i.i4, 1152920405095219200
  %cmp.not.i.i = icmp eq i64 %5, 1152920405095219200
  br i1 %cmp.not.i.i, label %_ZN4cvc58internal12NodeTemplateILb1EED2Ev.exit, label %if.then.i.i5

if.then.i.i5:                                     ; preds = %invoke.cont6
  %bf.value.i.i6 = add i64 %bf.load.i.i4, 1152920405095219200
  %bf.shl.i.i7 = and i64 %bf.value.i.i6, 1152920405095219200
  %bf.clear7.i.i8 = and i64 %bf.load.i.i4, -1152920405095219201
  %bf.set.i.i9 = or disjoint i64 %bf.shl.i.i7, %bf.clear7.i.i8
  store i64 %bf.set.i.i9, ptr %1, align 8
  %cmp12.i.i10 = icmp eq i64 %bf.shl.i.i7, 0
  br i1 %cmp12.i.i10, label %if.then13.i.i11, label %_ZN4cvc58internal12NodeTemplateILb1EED2Ev.exit

if.then13.i.i11:                                  ; preds = %if.then.i.i5
  invoke void @_ZN4cvc58internal4expr9NodeValue15markForDeletionEv(ptr noundef nonnull align 8 dereferenceable(16) %1)
          to label %_ZN4cvc58internal12NodeTemplateILb1EED2Ev.exit unwind label %terminate.lpad.i

terminate.lpad.i:                                 ; preds = %if.then13.i.i11
  %6 = landingpad { ptr, i32 }
          catch ptr null
  %7 = extractvalue { ptr, i32 } %6, 0
  call void @__clang_call_terminate(ptr %7) #19
  unreachable

_ZN4cvc58internal12NodeTemplateILb1EED2Ev.exit:   ; preds = %invoke.cont6, %if.then.i.i5, %if.then13.i.i11
  %8 = load ptr, ptr %resultNode, align 8
  %bf.load.i.i12 = load i64, ptr %8, align 8
  %9 = and i64 %bf.load.i.i12, 1152920405095219200
  %cmp.not.i.i13 = icmp eq i64 %9, 1152920405095219200
  br i1 %cmp.not.i.i13, label %_ZN4cvc58internal12NodeTemplateILb1EED2Ev.exit22, label %if.then.i.i14

if.then.i.i14:                                    ; preds = %_ZN4cvc58internal12NodeTemplateILb1EED2Ev.exit
  %bf.value.i.i15 = add i64 %bf.load.i.i12, 1152920405095219200
  %bf.shl.i.i16 = and i64 %bf.value.i.i15, 1152920405095219200
  %bf.clear7.i.i17 = and i64 %bf.load.i.i12, -1152920405095219201
  %bf.set.i.i18 = or disjoint i64 %bf.shl.i.i16, %bf.clear7.i.i17
  store i64 %bf.set.i.i18, ptr %8, align 8
  %cmp12.i.i19 = icmp eq i64 %bf.shl.i.i16, 0
  br i1 %cmp12.i.i19, label %if.then13.i.i20, label %_ZN4cvc58internal12NodeTemplateILb1EED2Ev.exit22

if.then13.i.i20:                                  ; preds = %if.then.i.i14
  invoke void @_ZN4cvc58internal4expr9NodeValue15markForDeletionEv(ptr noundef nonnull align 8 dereferenceable(16) %8)
          to label %_ZN4cvc58internal12NodeTemplateILb1EED2Ev.exit22 unwind label %terminate.lpad.i21

terminate.lpad.i21:                               ; preds = %if.then13.i.i20
  %10 = landingpad { ptr, i32 }
          catch ptr null
  %11 = extractvalue { ptr, i32 } %10, 0
  call void @__clang_call_terminate(ptr %11) #19
  unreachable

_ZN4cvc58internal12NodeTemplateILb1EED2Ev.exit22: ; preds = %_ZN4cvc58internal12NodeTemplateILb1EED2Ev.exit, %if.then.i.i14, %if.then13.i.i20
  ret void

lpad1:                                            ; preds = %if.then13.i.i
  %12 = landingpad { ptr, i32 }
          cleanup
  br label %ehcleanup

lpad5:                                            ; preds = %if.then13.i.i.i
  %13 = landingpad { ptr, i32 }
          cleanup
  call void @_ZN4cvc58internal12NodeTemplateILb1EED2Ev(ptr noundef nonnull align 8 dereferenceable(8) %agg.tmp3) #20
  br label %ehcleanup

ehcleanup:                                        ; preds = %lpad5, %lpad1
  %.pn = phi { ptr, i32 } [ %13, %lpad5 ], [ %12, %lpad1 ]
  call void @_ZN4cvc58internal12NodeTemplateILb1EED2Ev(ptr noundef nonnull align 8 dereferenceable(8) %resultNode) #20
  resume { ptr, i32 } %.pn
}